CCS PCH C Compiler, Version 5.011, 5967               22-Μαρ-21 21:14

               Filename:   F:\Embedded Systems\Embedded-system\Εργαστήριο2\Ask1\ask1.lst

               ROM used:   212 bytes (1%)
                           Largest free fragment is 30504
               RAM used:   5 (0%) at main() level
                           8 (0%) worst case
               Stack used: 1 locations
               Stack size: 31

*
0800:  GOTO   0834
.................... #include <main.h> 
.................... #include <18F4550.h> 
.................... //////// Standard Header file for the PIC18F4550 device //////////////// 
.................... #device PIC18F4550 
....................  
.................... #list 
....................  
.................... #DEVICE HIGH_INTS=TRUE 
.................... #device adc=10 
....................  
.................... #FUSES NOWDT                     //No Watch Dog Timer 
.................... #FUSES WDT32768                    //Watch Dog Timer uses 1:128 Postscale 
.................... #FUSES HSPLL                     //High Speed Crystal/Resonator with PLL enabled 
.................... #FUSES NOPROTECT                 //Code not protected from reading 
.................... #FUSES BROWNOUT                //No brownout reset 
.................... //#FUSES BORV20                    //Brownout reset at 2.0V 
.................... #FUSES NOPUT                     //No Power Up Timer 
.................... #FUSES NOCPD                     //No EE protection 
.................... #FUSES STVREN                    //Stack full/underflow will cause reset 
.................... #FUSES NODEBUG                   //No Debug mode for ICD 
.................... #FUSES NOLVP                     //No low voltage prgming, B3(PIC16) or B5(PIC18) used for I/O 
.................... #FUSES NOWRT                     //Program memory not write protected 
.................... #FUSES NOWRTD                    //Data EEPROM not write protected 
.................... #FUSES NOIESO                      //Internal External Switch Over mode enabled 
.................... #FUSES NOFCMEN                     //Fail-safe clock monitor enabled 
.................... #FUSES NOPBADEN                 ///PORTB pins are configured as analog input channels on RESET 
.................... #FUSES NOWRTC                    //configuration not registers write protected 
.................... #FUSES NOWRTB                    //Boot block not write protected 
.................... #FUSES NOEBTR                    //Memory not protected from table reads 
.................... #FUSES NOEBTRB                   //Boot block not protected from table reads 
.................... #FUSES NOCPB                     //No Boot Block code protection 
.................... #FUSES MCLR                      //Master Clear pin enabled 
.................... #FUSES NOLPT1OSC                   //Timer1 configured for low-power operation 
.................... #FUSES NOXINST                   //Extended set extension and Indexed Addressing mode disabled (Legacy mode) 
.................... #FUSES PLL5                      //Divide By 12(48MHz oscillator input) 
.................... #FUSES CPUDIV1                   //System Clock by 2 
.................... #FUSES USBDIV                    //USB clock source comes from PLL divide by 2 
.................... #FUSES VREGEN                    //USB voltage regulator enabled 
.................... #FUSES ICPRT                     //ICPRT enabled 
.................... #FUSES WRTB 
.................... #FUSES NOICPRT  
.................... #FUSES NOLPT1OSC 
.................... #FUSES CCP2B3  
.................... #FUSES NOCPB 
.................... #FUSES NOCPD 
.................... #FUSES NOWRTC 
.................... #FUSES NOWRTD 
.................... #FUSES NOEBTR 
.................... #FUSES NOEBTRB               
....................  
.................... /* systm clock is 48 MHz */ 
.................... #use delay(clock=48000000,RESTART_WDT) 
*
0808:  CLRF   FEA
080A:  MOVLW  08
080C:  MOVWF  FE9
080E:  MOVF   FEF,W
0810:  BZ    0832
0812:  MOVLW  0F
0814:  MOVWF  01
0816:  MOVLW  BF
0818:  MOVWF  00
081A:  CLRWDT
081C:  DECFSZ 00,F
081E:  BRA    081A
0820:  DECFSZ 01,F
0822:  BRA    0816
0824:  MOVLW  8F
0826:  MOVWF  00
0828:  DECFSZ 00,F
082A:  BRA    0828
082C:  CLRWDT
082E:  DECFSZ FEF,F
0830:  BRA    0812
0832:  RETURN 0
.................... /* --- BEGIN: changes required for bootloader ------------------------------ */ 
....................  
.................... /* ------------------------------------------------------------------------- */ 
.................... /* map reset vector and interrupt vector                                     */ 
.................... /* 0x000-0x7FF is used by the bootloader. The bootloader maps the original   */ 
.................... /* reset vecotr (0x000) to 0x800 and the reset vector (0x008) to 0x800.      */ 
.................... /* ------------------------------------------------------------------------- */ 
.................... #build (reset=0x800, interrupt=0x808) 
....................  
.................... /* ------------------------------------------------------------------------- */ 
.................... /* reserve boot block area                                                   */ 
.................... /* This memory range is used by the bootloader, so the application must not  */ 
.................... /* use this area.                                                            */ 
.................... /* ------------------------------------------------------------------------- */ 
.................... #org 0, 0x7FF {} 
....................  
.................... /* --- END: changes required for bootloader -------------------------------- */ 
....................  
....................  
....................  
....................  
....................  
....................  
.................... #byte PORTB=0xF81 
.................... #byte PORTD=0xF83 
....................  
.................... void main() 
0834:  CLRF   FF8
0836:  BSF    FD0.7
0838:  MOVF   FC1,W
083A:  ANDLW  C0
083C:  IORLW  0F
083E:  MOVWF  FC1
0840:  MOVLW  07
0842:  MOVWF  FB4
.................... { 
....................  
.................... set_tris_b(0x00); 
0844:  MOVLW  00
0846:  MOVWF  F93
.................... set_tris_d(0xFF); 
0848:  MOVLW  FF
084A:  MOVWF  F95
....................  
.................... int answear,i; 
.................... while (TRUE) 
.................... { 
....................     answear=PORTD; 
084C:  MOVFF  F83,05
....................     if(answear%2==0) 
0850:  MOVF   05,W
0852:  ANDLW  01
0854:  BNZ   087A
....................     { 
....................         for(i=0;i<10;i++){ 
0856:  CLRF   06
0858:  MOVF   06,W
085A:  SUBLW  09
085C:  BNC   0878
....................             output_bit(PIN_B0,1); 
085E:  BSF    F8A.0
0860:  BCF    F93.0
....................             delay_ms(2000); 
0862:  MOVLW  08
0864:  MOVWF  07
0866:  MOVLW  FA
0868:  MOVWF  08
086A:  RCALL  0808
086C:  DECFSZ 07,F
086E:  BRA    0866
....................             output_bit(PIN_B0,0); 
0870:  BCF    F8A.0
0872:  BCF    F93.0
0874:  INCF   06,F
0876:  BRA    0858
....................         } 
....................     }else{ 
0878:  BRA    08C6
....................         if(input(PIN_D7)) 
087A:  BSF    F95.7
087C:  BTFSS  F83.7
087E:  BRA    08A4
....................         { 
....................           for(i=0;i<5;i++) 
0880:  CLRF   06
0882:  MOVF   06,W
0884:  SUBLW  04
0886:  BNC   08A2
....................           { 
....................             output_bit(PIN_B1,1); 
0888:  BSF    F8A.1
088A:  BCF    F93.1
....................             delay_ms(2000); 
088C:  MOVLW  08
088E:  MOVWF  07
0890:  MOVLW  FA
0892:  MOVWF  08
0894:  RCALL  0808
0896:  DECFSZ 07,F
0898:  BRA    0890
....................             output_bit(PIN_B1,0);  
089A:  BCF    F8A.1
089C:  BCF    F93.1
089E:  INCF   06,F
08A0:  BRA    0882
....................           } 
....................         }else{ 
08A2:  BRA    08C6
....................             for(i=0;i<2;i++) 
08A4:  CLRF   06
08A6:  MOVF   06,W
08A8:  SUBLW  01
08AA:  BNC   08C6
....................           { 
....................             output_bit(PIN_B2,1); 
08AC:  BSF    F8A.2
08AE:  BCF    F93.2
....................             delay_ms(2000); 
08B0:  MOVLW  08
08B2:  MOVWF  07
08B4:  MOVLW  FA
08B6:  MOVWF  08
08B8:  RCALL  0808
08BA:  DECFSZ 07,F
08BC:  BRA    08B4
....................             output_bit(PIN_B2,0);  
08BE:  BCF    F8A.2
08C0:  BCF    F93.2
08C2:  INCF   06,F
08C4:  BRA    08A6
....................           } 
....................         } 
....................     } 
....................     delay_ms(3000); 
08C6:  MOVLW  0C
08C8:  MOVWF  07
08CA:  MOVLW  FA
08CC:  MOVWF  08
08CE:  RCALL  0808
08D0:  DECFSZ 07,F
08D2:  BRA    08CA
08D4:  BRA    084C
.................... } 
....................  
....................  
.................... } 
08D6:  SLEEP 

Configuration Fuses:
   Word  1: 0E24   PLL5 CPUDIV1 USBDIV HSPLL NOFCMEN NOIESO
   Word  2: 1E3F   NOPUT BROWNOUT BORV21 VREGEN NOWDT WDT32768
   Word  3: 8000   CCP2B3 NOPBADEN NOLPT1OSC MCLR
   Word  4: 0081   STVREN NOLVP ICSP1 NOXINST NODEBUG
   Word  5: C00F   NOPROTECT NOCPB NOCPD
   Word  6: A00F   NOWRT NOWRTC WRTB NOWRTD
   Word  7: 400F   NOEBTR NOEBTRB
