CCS PCH C Compiler, Version 5.011, 5967               21-Απρ-21 18:45

               Filename:   F:\Embedded Systems\Εργαστηριο\Εργαστήριο 4\Ask4_3\Ask4__3.lst

               ROM used:   258 bytes (1%)
                           Largest free fragment is 32506
               RAM used:   24 (1%) at main() level
                           24 (1%) worst case
               Stack used: 2 locations (1 in main + 1 for interrupts)
               Stack size: 31

*
0000:  GOTO   00E6
*
0008:  MOVWF  04
000A:  MOVFF  FD8,05
000E:  MOVFF  FE0,06
0012:  MOVLB  0
0014:  MOVFF  FE9,0C
0018:  MOVFF  FEA,07
001C:  MOVFF  FE1,08
0020:  MOVFF  FE2,09
0024:  MOVFF  FD9,0A
0028:  MOVFF  FDA,0B
002C:  MOVFF  FF3,12
0030:  MOVFF  FF4,13
0034:  MOVFF  FFA,14
0038:  MOVFF  00,0E
003C:  MOVFF  01,0F
0040:  MOVFF  02,10
0044:  MOVFF  03,11
0048:  BTFSS  FF2.5
004A:  GOTO   0054
004E:  BTFSC  FF2.2
0050:  GOTO   0096
0054:  MOVFF  0E,00
0058:  MOVFF  0F,01
005C:  MOVFF  10,02
0060:  MOVFF  11,03
0064:  MOVFF  0C,FE9
0068:  MOVFF  07,FEA
006C:  BSF    07.7
006E:  MOVFF  08,FE1
0072:  MOVFF  09,FE2
0076:  MOVFF  0A,FD9
007A:  MOVFF  0B,FDA
007E:  MOVFF  12,FF3
0082:  MOVFF  13,FF4
0086:  MOVFF  14,FFA
008A:  MOVF   04,W
008C:  MOVFF  06,FE0
0090:  MOVFF  05,FD8
0094:  RETFIE 0
.................... //gia msb T=250 ms ,ara 125 tha einai off kai 125 tha einai on  
.................... //gia lsb T=200 ms ,ara 100 tha einai off kai 100 tha einai on 
.................... // pernoume xrono diakopis xrono mikrotero tou 100 
.................... // pou dierei oles tis imiperiodous px 25ms 
....................  
.................... //gia 25ms 
.................... //LSb tha kanoun toogle kathe 100ms ara counter=4 
.................... //MSb tha kanoun toogle kathe 125ms ara counter=5 
....................  
.................... // set timer 
.................... // 25000000=83.333*128*(65536-x) => x=63192.2 
....................  
....................  
....................  
....................  
....................  
.................... #include "main_.h" 
.................... #include <18F4550.h> 
.................... //////// Standard Header file for the PIC18F4550 device //////////////// 
.................... #device PIC18F4550 
....................  
.................... #list 
....................  
.................... #device adc=10 
....................  
.................... #FUSES NOWDT                     //No Watch Dog Timer 
.................... #FUSES WDT32768                    //Watch Dog Timer uses 1:128 Postscale 
.................... #FUSES HSPLL                     //High Speed Crystal/Resonator with PLL enabled 
.................... #FUSES NOPROTECT                 //Code not protected from reading 
.................... #FUSES BROWNOUT                //No brownout reset 
.................... //#FUSES BORV20                    //Brownout reset at 2.0V 
.................... #FUSES NOPUT                     //No Power Up Timer 
.................... #FUSES NOCPD                     //No EE protection 
.................... #FUSES STVREN                    //Stack full/underflow will cause reset 
.................... #FUSES NODEBUG                   //No Debug mode for ICD 
.................... #FUSES NOLVP                     //No low voltage prgming, B3(PIC16) or B5(PIC18) used for I/O 
.................... #FUSES NOWRT                     //Program memory not write protected 
.................... #FUSES NOWRTD                    //Data EEPROM not write protected 
.................... #FUSES NOIESO                      //Internal External Switch Over mode enabled 
.................... #FUSES NOFCMEN                     //Fail-safe clock monitor enabled 
.................... #FUSES NOPBADEN                 ///PORTB pins are configured as analog input channels on RESET 
.................... #FUSES NOWRTC                    //configuration not registers write protected 
.................... #FUSES NOWRTB                    //Boot block not write protected 
.................... #FUSES NOEBTR                    //Memory not protected from table reads 
.................... #FUSES NOEBTRB                   //Boot block not protected from table reads 
.................... #FUSES NOCPB                     //No Boot Block code protection 
.................... #FUSES MCLR                      //Master Clear pin enabled 
.................... #FUSES NOLPT1OSC                   //Timer1 configured for low-power operation 
.................... #FUSES NOXINST                   //Extended set extension and Indexed Addressing mode disabled (Legacy mode) 
.................... #FUSES PLL5                      //Divide By 12(48MHz oscillator input) 
.................... #FUSES CPUDIV1                   //System Clock by 2 
.................... #FUSES USBDIV                    //USB clock source comes from PLL divide by 2 
.................... #FUSES VREGEN                    //USB voltage regulator enabled 
.................... //#FUSES ICPRT                     //ICPRT enabled 
.................... #FUSES WRTB 
.................... #FUSES NOICPRT  
.................... #FUSES NOLPT1OSC 
.................... #FUSES CCP2B3  
.................... #FUSES NOCPB 
.................... #FUSES NOCPD 
.................... #FUSES NOWRTC 
.................... #FUSES NOWRTD 
.................... #FUSES NOEBTR 
.................... #FUSES NOEBTRB               
....................  
.................... /* systm clock is 48 MHz */ 
.................... #use delay(clock=48000000,RESTART_WDT) 
.................... /* --- BEGIN: changes required for bootloader ------------------------------ */ 
....................  
.................... /* ------------------------------------------------------------------------- */ 
.................... /* map reset vector and interrupt vector                                     */ 
.................... /* 0x000-0x7FF is used by the bootloader. The bootloader maps the original   */ 
.................... /* reset vecotr (0x000) to 0x800 and the reset vector (0x008) to 0x800.      */ 
.................... /* ------------------------------------------------------------------------- */ 
.................... //#build (reset=0x800, interrupt=0x808) 
....................  
.................... /* ------------------------------------------------------------------------- */ 
.................... /* reserve boot block area                                                   */ 
.................... /* This memory range is used by the bootloader, so the application must not  */ 
.................... /* use this area.                                                            */ 
.................... /* ------------------------------------------------------------------------- */ 
.................... //#org 0, 0x7FF {} 
....................  
.................... /* --- END: changes required for bootloader -------------------------------- */ 
....................  
....................  
....................  
....................  
....................  
....................  
.................... #byte PORTB=0xF81 
....................  
....................  
....................  
.................... int8 counter100ms=4; 
.................... int8 counter125ms=5; 
....................  
....................  
....................  
.................... void timer0_int(void); 
.................... void init(void); 
....................  
.................... void main() 
*
00E6:  CLRF   FF8
00E8:  BCF    FD0.7
00EA:  BSF    07.7
00EC:  MOVLW  04
00EE:  MOVWF  16
00F0:  MOVLW  05
00F2:  MOVWF  17
00F4:  MOVF   FC1,W
00F6:  ANDLW  C0
00F8:  IORLW  0F
00FA:  MOVWF  FC1
00FC:  MOVLW  07
00FE:  MOVWF  FB4
.................... { 
.................... init(); 
0100:  BRA    00C8
.................... while (1) 
.................... { 
0102:  BRA    0102
....................  
.................... }} 
....................  
0104:  SLEEP 
....................  
.................... void  init (void) 
.................... {    
....................      
....................     set_tris_b(0x00); 
*
00C8:  MOVLW  00
00CA:  MOVWF  F93
....................     set_tris_d(0xff); 
00CC:  MOVLW  FF
00CE:  MOVWF  F95
....................     setup_timer_0(T0_INTERNAL|T0_DIV_128); 
00D0:  MOVLW  86
00D2:  MOVWF  FD5
....................     set_timer0(63192); 
00D4:  MOVLW  F6
00D6:  MOVWF  FD7
00D8:  MOVLW  D8
00DA:  MOVWF  FD6
....................     enable_interrupts(INT_TIMER0); 
00DC:  BSF    FF2.5
....................     enable_interrupts(GLOBAL); 
00DE:  MOVLW  C0
00E0:  IORWF  FF2,F
00E2:  GOTO   0102 (RETURN)
.................... } 
....................  
.................... #INT_TIMER0 
.................... void timer0_int(){ 
....................     set_timer0(63192); 
*
0096:  MOVLW  F6
0098:  MOVWF  FD7
009A:  MOVLW  D8
009C:  MOVWF  FD6
....................     counter100ms--; 
009E:  DECF   16,F
....................     counter125ms--; 
00A0:  DECF   17,F
....................  
.................... if(input_state(PIN_D0)) 
00A2:  BTFSS  F83.0
00A4:  BRA    00B6
.................... { 
.................... PORTB=0x00; 
00A6:  CLRF   F81
....................     if (counter125ms==0) 
00A8:  MOVF   17,F
00AA:  BNZ   00B4
....................     { 
....................         counter125ms=5; 
00AC:  MOVLW  05
00AE:  MOVWF  17
....................         PORTB=PORTB^0b11110000; 
00B0:  MOVLW  F0
00B2:  XORWF  F81,F
....................     } 
.................... }else{ 
00B4:  BRA    00C2
....................     if (counter100ms==0) 
00B6:  MOVF   16,F
00B8:  BNZ   00C2
....................     { 
....................         counter100ms=4; 
00BA:  MOVLW  04
00BC:  MOVWF  16
....................         PORTB=PORTB^0b00001111; 
00BE:  MOVLW  0F
00C0:  XORWF  F81,F
....................     } 
.................... } 
00C2:  BCF    FF2.2
00C4:  GOTO   0054
.................... } 
....................  
....................      
....................  
....................      

Configuration Fuses:
   Word  1: 0E24   PLL5 CPUDIV1 USBDIV HSPLL NOFCMEN NOIESO
   Word  2: 1E3F   NOPUT BROWNOUT BORV21 VREGEN NOWDT WDT32768
   Word  3: 8000   CCP2B3 NOPBADEN NOLPT1OSC MCLR
   Word  4: 0081   STVREN NOLVP ICSP1 NOXINST NODEBUG
   Word  5: C00F   NOPROTECT NOCPB NOCPD
   Word  6: A00F   NOWRT NOWRTC WRTB NOWRTD
   Word  7: 400F   NOEBTR NOEBTRB
