CCS PCH C Compiler, Version 5.011, 5967               06-Брс-21 22:32

               Filename:   F:\Embedded Systems\ИещсЯб\Exercise5b Interrupts with Rb всет фпн бкспдекфз рпх бллбое\exc5b.lst

               ROM used:   280 bytes (1%)
                           Largest free fragment is 31652
               RAM used:   23 (1%) at main() level
                           25 (1%) worst case
               Stack used: 3 locations (1 in main + 2 for interrupts)
               Stack size: 30

*
0000:  GOTO   0102
*
0008:  NOP   
000A:  NOP   
000C:  NOP   
000E:  NOP   
0010:  NOP   
0012:  NOP   
0014:  NOP   
0016:  NOP   
0018:  MOVWF  04
001A:  MOVFF  FD8,05
001E:  MOVFF  FE0,06
0022:  MOVLB  0
0024:  MOVFF  FE9,0C
0028:  MOVFF  FEA,07
002C:  MOVFF  FE1,08
0030:  MOVFF  FE2,09
0034:  MOVFF  FD9,0A
0038:  MOVFF  FDA,0B
003C:  MOVFF  FF3,12
0040:  MOVFF  FF4,13
0044:  MOVFF  FFA,14
0048:  MOVFF  00,0E
004C:  MOVFF  01,0F
0050:  MOVFF  02,10
0054:  MOVFF  03,11
0058:  BTFSS  FF2.3
005A:  GOTO   0064
005E:  BTFSC  FF2.0
0060:  GOTO   00D4
0064:  MOVFF  0E,00
0068:  MOVFF  0F,01
006C:  MOVFF  10,02
0070:  MOVFF  11,03
0074:  MOVFF  0C,FE9
0078:  MOVFF  07,FEA
007C:  BSF    07.7
007E:  MOVFF  08,FE1
0082:  MOVFF  09,FE2
0086:  MOVFF  0A,FD9
008A:  MOVFF  0B,FDA
008E:  MOVFF  12,FF3
0092:  MOVFF  13,FF4
0096:  MOVFF  14,FFA
009A:  MOVF   04,W
009C:  MOVFF  06,FE0
00A0:  MOVFF  05,FD8
00A4:  RETFIE 0
.................... // ОќО± ОіПЃО±П†ОµОЇ ПЂПЃПЊОіПЃО±ОјОјО± ОјОµ П„Ої ОїПЂОїОЇОї ПЂПЃОїОєО±О»ОµОЇП„О±О№ ОјО№О± ОґО№О±ОєОїПЂО® О±ПЂПЊ О±О»О»О±ОіО® ОєО±П„О¬ПѓП„О±ПѓО·П‚ ПѓП„ОїП…П‚ О±ОєПЃОїОґО­ОєП„ОµП‚ RB4, RB5, RB6, RB7.  
.................... // ОљО¬ОёОµ П†ОїПЃО¬ ПЂОїП… О±О»О»О¬О¶ОµО№ О· ОєО±П„О¬ПѓП„О±ПѓО· ПѓОµ О­ОЅО±ОЅ О±ПЂПЊ П„ОїП…П‚ ОґО№О±ОєПЊПЂП„ОµП‚ ПЂОїП… ОµОЇОЅО±О№ ПѓП…ОЅОґОµОґОµОјО­ОЅОїО№ ПѓП„ОїП… О±ОєПЃОїОґО­ОєП„ОµП‚ RB4, RB5, RB6, RB7 ОЅО± О±ОЅО¬ОІОµО№ П„Ої О±ОЅП„ОЇПѓП„ОїО№П‡Ої LED П„О·П‚ ПЂПЊПЃП„О±П‚ D. 
.................... // О“О№О± ПЂО±ПЃО¬ОґОµО№ОіОјО± О±ОЅ О±О»О»О¬ОѕОµО№ О· ОєО±П„О¬ПѓП„О±ПѓО· ПѓП„ОїОЅ О±ОєПЃОїОґО­ОєП„О· RB6 ОёО± О±ОЅО¬П€ОµО№ П„Ої LED ПЂОїП… ОµОЇОЅО±О№ ПѓП…ОЅОґОµОґОµОјО­ОЅОї ПѓП„ОїОЅ О±ОєПЃОїОґО­ОєП„О· 6 П„О·П‚ ПЂПЊПЃП„О±П‚ D. 
....................  
.................... #include <main-proteus.h> 
.................... #include <18F4550.h> 
.................... //////// Standard Header file for the PIC18F4550 device //////////////// 
.................... #device PIC18F4550 
....................  
.................... #list 
....................  
.................... #DEVICE HIGH_INTS=TRUE 
....................  #device icd=2 
.................... #device adc=10 
....................  
.................... #FUSES NOWDT                     //No Watch Dog Timer 
.................... #FUSES WDT32768                    //Watch Dog Timer uses 1:128 Postscale 
.................... #FUSES HSPLL                     //High Speed Crystal/Resonator with PLL enabled 
.................... #FUSES NOPROTECT                 //Code not protected from reading 
.................... #FUSES BROWNOUT                //No brownout reset 
.................... //#FUSES BORV20                    //Brownout reset at 2.0V 
.................... #FUSES NOPUT                     //No Power Up Timer 
.................... #FUSES NOCPD                     //No EE protection 
.................... #FUSES STVREN                    //Stack full/underflow will cause reset 
.................... #FUSES NODEBUG                   //No Debug mode for ICD 
.................... #FUSES NOLVP                     //No low voltage prgming, B3(PIC16) or B5(PIC18) used for I/O 
.................... #FUSES NOWRT                     //Program memory not write protected 
.................... #FUSES NOWRTD                    //Data EEPROM not write protected 
.................... #FUSES NOIESO                      //Internal External Switch Over mode enabled 
.................... #FUSES NOFCMEN                     //Fail-safe clock monitor enabled 
.................... #FUSES NOPBADEN                 ///PORTB pins are configured as analog input channels on RESET 
.................... #FUSES NOWRTC                    //configuration not registers write protected 
.................... #FUSES NOWRTB                    //Boot block not write protected 
.................... #FUSES NOEBTR                    //Memory not protected from table reads 
.................... #FUSES NOEBTRB                   //Boot block not protected from table reads 
.................... #FUSES NOCPB                     //No Boot Block code protection 
.................... #FUSES MCLR                      //Master Clear pin enabled 
.................... #FUSES NOLPT1OSC                   //Timer1 configured for low-power operation 
.................... #FUSES NOXINST                   //Extended set extension and Indexed Addressing mode disabled (Legacy mode) 
.................... #FUSES PLL5                      //Divide By 12(48MHz oscillator input) 
.................... #FUSES CPUDIV1                   //System Clock by 2 
.................... #FUSES USBDIV                    //USB clock source comes from PLL divide by 2 
.................... #FUSES VREGEN                    //USB voltage regulator enabled 
.................... //#FUSES ICPRT                     //ICPRT enabled 
.................... #FUSES WRTB 
.................... #FUSES NOICPRT  
.................... #FUSES NOLPT1OSC 
.................... #FUSES CCP2B3  
.................... #FUSES NOCPB 
.................... #FUSES NOCPD 
.................... #FUSES NOWRTC 
.................... #FUSES NOWRTD 
.................... #FUSES NOEBTR 
.................... #FUSES NOEBTRB               
....................  
.................... /* systm clock is 48 MHz */ 
.................... #use delay(clock=48000000,RESTART_WDT) 
00A6:  CLRF   FEA
00A8:  MOVLW  18
00AA:  MOVWF  FE9
00AC:  MOVF   FEF,W
00AE:  BZ    00D0
00B0:  MOVLW  0F
00B2:  MOVWF  01
00B4:  MOVLW  BF
00B6:  MOVWF  00
00B8:  CLRWDT
00BA:  DECFSZ 00,F
00BC:  BRA    00B8
00BE:  DECFSZ 01,F
00C0:  BRA    00B4
00C2:  MOVLW  8F
00C4:  MOVWF  00
00C6:  DECFSZ 00,F
00C8:  BRA    00C6
00CA:  CLRWDT
00CC:  DECFSZ FEF,F
00CE:  BRA    00B0
00D0:  GOTO   00E8 (RETURN)
.................... /* --- BEGIN: changes required for bootloader ------------------------------ */ 
....................  
.................... /* ------------------------------------------------------------------------- */ 
.................... /* map reset vector and interrupt vector                                     */ 
.................... /* 0x000-0x7FF is used by the bootloader. The bootloader maps the original   */ 
.................... /* reset vecotr (0x000) to 0x800 and the reset vector (0x008) to 0x800.      */ 
.................... /* ------------------------------------------------------------------------- */ 
.................... #build (reset=0x000, interrupt=0x008) 
....................  
.................... /* ------------------------------------------------------------------------- */ 
.................... /* reserve boot block area                                                   */ 
.................... /* This memory range is used by the bootloader, so the application must not  */ 
.................... /* use this area.                                                            */ 
.................... /* ------------------------------------------------------------------------- */ 
.................... //#org 0  , 0x000 {} 
....................  
.................... /* --- END: changes required for bootloader -------------------------------- */ 
....................  
....................  
....................  
....................  
....................  
.................... #byte PORTB=0xF81 
.................... #byte PORTD=0xF83   
....................                                                              
.................... void rb(void) ;               // пїЅпїЅпїЅпїЅпїЅпїЅ пїЅпїЅпїЅ пїЅпїЅпїЅпїЅпїЅпїЅпїЅпїЅ пїЅпїЅпїЅпїЅпїЅпїЅпїЅпїЅ пїЅпїЅпїЅ пїЅпїЅпїЅпїЅ пїЅпїЅпїЅпїЅпїЅпїЅпїЅпїЅпїЅпїЅ RB4, RB5, 
....................                               //  RB6, RB7 
.................... void init(void); 
....................  
.................... int8 lastPORTB;               //Global пїЅпїЅпїЅпїЅпїЅпїЅпїЅпїЅпїЅ пїЅпїЅпїЅ пїЅпїЅ пїЅпїЅпїЅпїЅпїЅпїЅпїЅпїЅпїЅпїЅ пїЅпїЅпїЅ пїЅпїЅпїЅпїЅпїЅпїЅпїЅпїЅпїЅ пїЅпїЅпїЅпїЅ пїЅпїЅпїЅ пїЅпїЅпїЅпїЅпїЅпїЅ пїЅ 
....................  
.................... void main(){                  // пїЅпїЅпїЅпїЅ пїЅпїЅпїЅ main 
*
0102:  CLRF   FF8
0104:  BCF    FF1.0
0106:  BSF    FD0.7
0108:  BSF    07.7
010A:  MOVF   FC1,W
010C:  ANDLW  C0
010E:  IORLW  0F
0110:  MOVWF  FC1
0112:  MOVLW  07
0114:  MOVWF  FB4
.................... init();                       // пїЅпїЅпїЅпїЅпїЅпїЅпїЅ пїЅпїЅпїЅпїЅпїЅпїЅпїЅпїЅпїЅпїЅпїЅпїЅпїЅ, пїЅпїЅпїЅпїЅпїЅпїЅпїЅпїЅпїЅ пїЅпїЅпїЅпїЅпїЅпїЅпїЅ/пїЅпїЅпїЅпїЅпїЅпїЅ, пїЅпїЅпїЅпїЅпїЅпїЅпїЅпїЅ пїЅпїЅпїЅ. 
0116:  BRA    00EE
.................... while(TRUE){   }              // пїЅпїЅ пїЅпїЅпїЅпїЅпїЅ пїЅпїЅпїЅпїЅпїЅпїЅпїЅпїЅпїЅ пїЅпїЅпїЅ пїЅпїЅпїЅпїЅпїЅ пїЅпїЅпїЅпїЅпїЅпїЅ 
0118:  BRA    0118
....................                   }           //пїЅпїЅпїЅпїЅпїЅ пїЅпїЅпїЅ main 
....................  
011A:  BRA    011A
....................  
.................... void init (void){                      //пїЅпїЅпїЅпїЅ пїЅпїЅпїЅ пїЅпїЅпїЅпїЅпїЅпїЅпїЅпїЅ пїЅпїЅпїЅпїЅпїЅпїЅпїЅпїЅпїЅпїЅпїЅпїЅпїЅ 
....................            set_tris_d(0x00);           //  пїЅпїЅпїЅпїЅпїЅпїЅпїЅпїЅпїЅпїЅ пїЅпїЅпїЅ пїЅпїЅпїЅпїЅпїЅпїЅ D пїЅпїЅ пїЅпїЅпїЅпїЅпїЅпїЅ 
*
00EE:  MOVLW  00
00F0:  MOVWF  F95
....................    
....................            enable_interrupts(GLOBAL);  //пїЅпїЅпїЅпїЅпїЅпїЅпїЅпїЅпїЅпїЅпїЅпїЅ пїЅпїЅпїЅ пїЅпїЅпїЅпїЅпїЅпїЅпїЅ пїЅпїЅпїЅпїЅпїЅпїЅпїЅпїЅ  пїЅпїЅпїЅпїЅпїЅпїЅпїЅпїЅ 
00F2:  MOVLW  C0
00F4:  IORWF  FF2,F
....................            enable_interrupts(INT_RB);  //пїЅпїЅпїЅпїЅпїЅпїЅпїЅпїЅпїЅпїЅпїЅпїЅ пїЅпїЅпїЅпїЅпїЅпїЅпїЅпїЅ пїЅпїЅпїЅ пїЅпїЅпїЅпїЅпїЅпїЅ  
00F6:  BSF    FF2.3
....................                                        //пїЅпїЅпїЅпїЅпїЅпїЅпїЅпїЅпїЅпїЅ пїЅпїЅпїЅпїЅпїЅ пїЅпїЅпїЅпїЅпїЅпїЅпїЅпїЅпїЅпїЅ 
....................                                        // RB4, RB5, RB6, RB7 
....................           PORTD=0x00; 
00F8:  CLRF   F83
....................           lastPORTB=PORTB; 
00FA:  MOVFF  F81,16
00FE:  GOTO   0118 (RETURN)
....................            
....................       }                                //пїЅпїЅпїЅпїЅпїЅ пїЅпїЅпїЅпїЅпїЅпїЅпїЅпїЅ пїЅпїЅпїЅпїЅпїЅпїЅпїЅпїЅпїЅпїЅпїЅпїЅпїЅ 
....................  
....................  
....................  
.................... #INT_RB                  // пїЅпїЅпїЅпїЅпїЅпїЅпїЅ пїЅпїЅпїЅ пїЅпїЅпїЅпїЅпїЅпїЅпїЅпїЅпїЅпїЅпїЅ пїЅпїЅпїЅ пїЅпїЅпїЅпїЅпїЅпїЅ 
....................                          // пїЅпїЅпїЅпїЅпїЅпїЅпїЅпїЅпїЅпїЅ пїЅпїЅпїЅпїЅпїЅ пїЅпїЅпїЅпїЅпїЅпїЅпїЅпїЅпїЅпїЅ RB4, RB5, RB6, RB7 
.................... void rb (void){          //пїЅпїЅпїЅпїЅ пїЅпїЅпїЅ пїЅпїЅпїЅпїЅпїЅпїЅпїЅпїЅ пїЅпїЅпїЅпїЅпїЅпїЅпїЅпїЅпїЅпїЅпїЅпїЅ пїЅпїЅпїЅ пїЅпїЅпїЅпїЅпїЅпїЅпїЅпїЅ rb 
....................        
....................        int8 changes;                    // пїЅпїЅпїЅпїЅпїЅпїЅпїЅ пїЅпїЅпїЅпїЅпїЅпїЅпїЅпїЅпїЅпїЅ пїЅпїЅпїЅ 8 bit. 
....................  
....................        changes = lastPORTB ^ PORTB;     // пїЅпїЅпїЅпїЅпїЅпїЅпїЅ 1 пїЅпїЅ bit пїЅпїЅпїЅ пїЅпїЅпїЅпїЅпїЅпїЅ 
*
00D4:  MOVF   16,W
00D6:  XORWF  F81,W
00D8:  MOVWF  17
....................                                         //пїЅпїЅпїЅпїЅпїЅпїЅпїЅпїЅпїЅпїЅпїЅ пїЅпїЅпїЅ 1 пїЅпїЅпїЅ пїЅпїЅпїЅпїЅпїЅпїЅпїЅпїЅпїЅ changes 
....................                                         //пїЅпїЅ bit пїЅпїЅпїЅ пїЅпїЅпїЅпїЅпїЅпїЅ. 
....................       lastPORTB=PORTB;                   // пїЅпїЅпїЅпїЅпїЅпїЅпїЅпїЅпїЅпїЅпїЅ пїЅ пїЅпїЅпїЅ пїЅпїЅпїЅпїЅ пїЅпїЅпїЅ пїЅпїЅпїЅпїЅпїЅпїЅ пїЅ 
00DA:  MOVFF  F81,16
....................                                         //пїЅпїЅпїЅпїЅ пїЅпїЅпїЅпїЅ пїЅпїЅпїЅ пїЅпїЅпїЅпїЅпїЅпїЅпїЅпїЅпїЅпїЅ lastPORTB 
....................       PORTD=changes; 
00DE:  MOVFF  17,F83
....................  
....................       delay_ms (100);                   //пїЅпїЅпїЅпїЅпїЅпїЅпїЅпїЅпїЅпїЅпїЅ пїЅпїЅпїЅ пїЅпїЅпїЅпїЅпїЅпїЅпїЅ пїЅпїЅпїЅпїЅпїЅпїЅпїЅпїЅпїЅпїЅпїЅ 
00E2:  MOVLW  64
00E4:  MOVWF  18
00E6:  BRA    00A6
....................        
....................  
00E8:  BCF    FF2.0
00EA:  GOTO   0064
....................         }  

Configuration Fuses:
   Word  1: 0E24   PLL5 CPUDIV1 USBDIV HSPLL NOFCMEN NOIESO
   Word  2: 1E39   NOPUT NOBROWNOUT BORV21 VREGEN NOWDT WDT32768
   Word  3: 8000   CCP2B3 NOPBADEN NOLPT1OSC MCLR
   Word  4: 0020   NOSTVREN NOLVP ICSP2 NOXINST DEBUG
   Word  5: C00F   NOPROTECT NOCPB NOCPD
   Word  6: E00F   NOWRT NOWRTC NOWRTB NOWRTD
   Word  7: 400F   NOEBTR NOEBTRB

   Some fuses have been forced to be compatible with the ICD debugger.
